target datalayout = "e-m:e-p270:32:32-p271:32:32-p272:64:64-i64:64-i128:128-f80:128-n8:16:32:64-S128"
target triple = "x86_64-pc-linux-gnu"

%"struct.Luau::CodeGen::X64::RegisterX64" = type { i8 }

; Function Attrs: mustprogress nounwind uwtable
define dso_local noundef ptr @_ZNK4Luau7CodeGen3X6418AssemblyBuilderX6415getRegisterNameENS1_11RegisterX64E(ptr noundef nonnull align 8 dereferenceable(252) %0, i8 %1) #1 align 2 {
  %3 = alloca %"struct.Luau::CodeGen::X64::RegisterX64", align 1
  %4 = alloca ptr, align 8
  %5 = getelementptr inbounds nuw %"struct.Luau::CodeGen::X64::RegisterX64", ptr %3, i32 0, i32 0
  store i8 %1, ptr %5, align 1
  store ptr %0, ptr %4, align 8, !tbaa !4
  %6 = load i8, ptr %3, align 1
  %7 = and i8 %6, 7
  %8 = zext i8 %7 to i64
  %9 = getelementptr inbounds nuw [7 x [16 x ptr]], ptr @_ZZNK4Luau7CodeGen3X6418AssemblyBuilderX6415getRegisterNameENS1_11RegisterX64EE5names, i64 0, i64 %8
  %10 = load i8, ptr %3, align 1
  %11 = lshr i8 %10, 3
  %12 = zext i8 %11 to i64
  %13 = getelementptr inbounds nuw [16 x ptr], ptr %9, i64 0, i64 %12
  %14 = load ptr, ptr %13, align 8, !tbaa !80
  ret ptr %14
}