; Function Attrs: mustprogress nofree norecurse nosync nounwind willreturn memory(none) uwtable
define dso_local noundef ptr @_ZNK4Luau7CodeGen3X6418AssemblyBuilderX6415getRegisterNameENS1_11RegisterX64E(ptr noundef nonnull readnone align 8 captures(none) dereferenceable(252) %0, i8 %1) local_unnamed_addr #10 align 2 {
  %3 = and i8 %1, 7
  %4 = zext nneg i8 %3 to i64
  %5 = lshr i8 %1, 3
  %6 = zext nneg i8 %5 to i64
  %7 = getelementptr inbounds nuw [7 x [16 x ptr]], ptr @_ZZNK4Luau7CodeGen3X6418AssemblyBuilderX6415getRegisterNameENS1_11RegisterX64EE5names, i64 0, i64 %4, i64 %6
  %8 = load ptr, ptr %7, align 8, !tbaa !64
  ret ptr %8
}